target datalayout = "e-m:e-p270:32:32-p271:32:32-p272:64:64-i64:64-i128:128-f80:128-n8:16:32:64-S128"
target triple = "x86_64-pc-linux-gnu"

%struct.lv_font_fmt_txt_dsc_t = type { ptr, ptr, ptr, ptr, i16, i16 }
%struct.lv_font_fmt_txt_kern_pair_t = type { ptr, ptr, i32 }
%struct.lv_font_fmt_txt_kern_classes_t = type { ptr, ptr, ptr, i8, i8 }

@.str = private unnamed_addr constant [5 x i8] c"kern\00", align 1

; Function Attrs: nounwind uwtable
define internal i32 @read_label(ptr noundef %0, i32 noundef %1, ptr noundef %2) #0 {
  %4 = alloca i32, align 4
  %5 = alloca ptr, align 8
  %6 = alloca i32, align 4
  %7 = alloca ptr, align 8
  %8 = alloca i32, align 4
  %9 = alloca [4 x i8], align 1
  %10 = alloca i32, align 4
  store ptr %0, ptr %5, align 8, !tbaa !12
  store i32 %1, ptr %6, align 4, !tbaa !8
  store ptr %2, ptr %7, align 8, !tbaa !3
  %11 = load ptr, ptr %5, align 8, !tbaa !12
  %12 = load i32, ptr %6, align 4, !tbaa !8
  %13 = call i32 @lv_fs_seek(ptr noundef %11, i32 noundef %12, i32 noundef 0)
  call void @llvm.lifetime.start.p0(i64 4, ptr %8) #3
  call void @llvm.lifetime.start.p0(i64 4, ptr %9) #3
  %14 = load ptr, ptr %5, align 8, !tbaa !12
  %15 = call i32 @lv_fs_read(ptr noundef %14, ptr noundef %8, i32 noundef 4, ptr noundef null)
  %16 = icmp ne i32 %15, 0
  br i1 %16, label %27, label %17

17:                                               ; preds = %3
  %18 = load ptr, ptr %5, align 8, !tbaa !12
  %19 = getelementptr inbounds [4 x i8], ptr %9, i64 0, i64 0
  %20 = call i32 @lv_fs_read(ptr noundef %18, ptr noundef %19, i32 noundef 4, ptr noundef null)
  %21 = icmp ne i32 %20, 0
  br i1 %21, label %27, label %22

22:                                               ; preds = %17
  %23 = load ptr, ptr %7, align 8, !tbaa !3
  %24 = getelementptr inbounds [4 x i8], ptr %9, i64 0, i64 0
  %25 = call i32 @lv_memcmp(ptr noundef %23, ptr noundef %24, i64 noundef 4)
  %26 = icmp ne i32 %25, 0
  br i1 %26, label %27, label %31

27:                                               ; preds = %22, %17, %3
  br label %28

28:                                               ; preds = %27
  br label %29

29:                                               ; preds = %28
  br label %30

30:                                               ; preds = %29
  store i32 -1, ptr %4, align 4
  store i32 1, ptr %10, align 4
  br label %33

31:                                               ; preds = %22
  %32 = load i32, ptr %8, align 4, !tbaa !8
  store i32 %32, ptr %4, align 4
  store i32 1, ptr %10, align 4
  br label %33

33:                                               ; preds = %31, %30
  call void @llvm.lifetime.end.p0(i64 4, ptr %9) #3
  call void @llvm.lifetime.end.p0(i64 4, ptr %8) #3
  %34 = load i32, ptr %4, align 4
  ret i32 %34
}

; Function Attrs: nounwind uwtable
define i32 @load_kern(ptr noundef %0, ptr noundef %1, i8 noundef zeroext %2, i32 noundef %3) #0 {
  %5 = alloca i32, align 4
  %6 = alloca ptr, align 8
  %7 = alloca ptr, align 8
  %8 = alloca i8, align 1
  %9 = alloca i32, align 4
  %10 = alloca i32, align 4
  %11 = alloca i32, align 4
  %12 = alloca i8, align 1
  %13 = alloca i32, align 4
  %14 = alloca ptr, align 8
  %15 = alloca i32, align 4
  %16 = alloca i32, align 4
  %17 = alloca ptr, align 8
  %18 = alloca ptr, align 8
  %19 = alloca ptr, align 8
  %20 = alloca i16, align 2
  %21 = alloca i8, align 1
  %22 = alloca i8, align 1
  %23 = alloca i32, align 4
  %24 = alloca ptr, align 8
  %25 = alloca ptr, align 8
  %26 = alloca ptr, align 8
  store ptr %0, ptr %6, align 8, !tbaa !12
  store ptr %1, ptr %7, align 8, !tbaa !12
  store i8 %2, ptr %8, align 1, !tbaa !61
  store i32 %3, ptr %9, align 4, !tbaa !8
  call void @llvm.lifetime.start.p0(i64 4, ptr %10) #3
  %27 = load ptr, ptr %6, align 8, !tbaa !12
  %28 = load i32, ptr %9, align 4, !tbaa !8
  %29 = call i32 @read_label(ptr noundef %27, i32 noundef %28, ptr noundef @.str)
  store i32 %29, ptr %10, align 4, !tbaa !8
  %30 = load i32, ptr %10, align 4, !tbaa !8
  %31 = icmp slt i32 %30, 0
  br i1 %31, label %32, label %33

32:                                               ; preds = %4
  store i32 -1, ptr %5, align 4
  store i32 1, ptr %11, align 4
  br label %214

33:                                               ; preds = %4
  call void @llvm.lifetime.start.p0(i64 1, ptr %12) #3
  call void @llvm.lifetime.start.p0(i64 4, ptr %13) #3
  %34 = load ptr, ptr %6, align 8, !tbaa !12
  %35 = call i32 @lv_fs_read(ptr noundef %34, ptr noundef %12, i32 noundef 1, ptr noundef null)
  %36 = icmp ne i32 %35, 0
  br i1 %36, label %41, label %37

37:                                               ; preds = %33
  %38 = load ptr, ptr %6, align 8, !tbaa !12
  %39 = call i32 @lv_fs_read(ptr noundef %38, ptr noundef %13, i32 noundef 3, ptr noundef null)
  %40 = icmp ne i32 %39, 0
  br i1 %40, label %41, label %42

41:                                               ; preds = %37, %33
  store i32 -1, ptr %5, align 4
  store i32 1, ptr %11, align 4
  br label %213

42:                                               ; preds = %37
  %43 = load i8, ptr %12, align 1, !tbaa !61
  %44 = zext i8 %43 to i32
  %45 = icmp eq i32 0, %44
  br i1 %45, label %46, label %122

46:                                               ; preds = %42
  call void @llvm.lifetime.start.p0(i64 8, ptr %14) #3
  %47 = call ptr @lv_malloc(i64 noundef 24)
  store ptr %47, ptr %14, align 8, !tbaa !12
  %48 = load ptr, ptr %14, align 8, !tbaa !12
  call void @lv_memset(ptr noundef %48, i8 noundef zeroext 0, i64 noundef 24)
  %49 = load ptr, ptr %14, align 8, !tbaa !12
  %50 = load ptr, ptr %7, align 8, !tbaa !12
  %51 = getelementptr inbounds nuw %struct.lv_font_fmt_txt_dsc_t, ptr %50, i32 0, i32 3
  store ptr %49, ptr %51, align 8, !tbaa !44
  %52 = load ptr, ptr %7, align 8, !tbaa !12
  %53 = getelementptr inbounds nuw %struct.lv_font_fmt_txt_dsc_t, ptr %52, i32 0, i32 5
  %54 = load i16, ptr %53, align 2
  %55 = and i16 %54, -8193
  %56 = or i16 %55, 0
  store i16 %56, ptr %53, align 2
  call void @llvm.lifetime.start.p0(i64 4, ptr %15) #3
  %57 = load ptr, ptr %6, align 8, !tbaa !12
  %58 = call i32 @lv_fs_read(ptr noundef %57, ptr noundef %15, i32 noundef 4, ptr noundef null)
  %59 = icmp ne i32 %58, 0
  br i1 %59, label %60, label %61

60:                                               ; preds = %46
  store i32 -1, ptr %5, align 4
  store i32 1, ptr %11, align 4
  br label %119

61:                                               ; preds = %46
  call void @llvm.lifetime.start.p0(i64 4, ptr %16) #3
  %62 = load i8, ptr %8, align 1, !tbaa !61
  %63 = zext i8 %62 to i32
  %64 = icmp eq i32 %63, 0
  br i1 %64, label %65, label %70

65:                                               ; preds = %61
  %66 = load i32, ptr %15, align 4, !tbaa !8
  %67 = zext i32 %66 to i64
  %68 = mul i64 2, %67
  %69 = trunc i64 %68 to i32
  store i32 %69, ptr %16, align 4, !tbaa !8
  br label %75

70:                                               ; preds = %61
  %71 = load i32, ptr %15, align 4, !tbaa !8
  %72 = zext i32 %71 to i64
  %73 = mul i64 4, %72
  %74 = trunc i64 %73 to i32
  store i32 %74, ptr %16, align 4, !tbaa !8
  br label %75

75:                                               ; preds = %70, %65
  call void @llvm.lifetime.start.p0(i64 8, ptr %17) #3
  %76 = load i32, ptr %16, align 4, !tbaa !8
  %77 = sext i32 %76 to i64
  %78 = call ptr @lv_malloc(i64 noundef %77)
  store ptr %78, ptr %17, align 8, !tbaa !3
  call void @llvm.lifetime.start.p0(i64 8, ptr %18) #3
  %79 = load i32, ptr %15, align 4, !tbaa !8
  %80 = zext i32 %79 to i64
  %81 = call ptr @lv_malloc(i64 noundef %80)
  store ptr %81, ptr %18, align 8, !tbaa !3
  %82 = load i8, ptr %8, align 1, !tbaa !61
  %83 = zext i8 %82 to i32
  %84 = load ptr, ptr %14, align 8, !tbaa !12
  %85 = getelementptr inbounds nuw %struct.lv_font_fmt_txt_kern_pair_t, ptr %84, i32 0, i32 2
  %86 = load i32, ptr %85, align 8
  %87 = and i32 %83, 3
  %88 = shl i32 %87, 30
  %89 = and i32 %86, 1073741823
  %90 = or i32 %89, %88
  store i32 %90, ptr %85, align 8
  %91 = load i32, ptr %15, align 4, !tbaa !8
  %92 = load ptr, ptr %14, align 8, !tbaa !12
  %93 = getelementptr inbounds nuw %struct.lv_font_fmt_txt_kern_pair_t, ptr %92, i32 0, i32 2
  %94 = load i32, ptr %93, align 8
  %95 = and i32 %91, 1073741823
  %96 = and i32 %94, -1073741824
  %97 = or i32 %96, %95
  store i32 %97, ptr %93, align 8
  %98 = load ptr, ptr %17, align 8, !tbaa !3
  %99 = load ptr, ptr %14, align 8, !tbaa !12
  %100 = getelementptr inbounds nuw %struct.lv_font_fmt_txt_kern_pair_t, ptr %99, i32 0, i32 0
  store ptr %98, ptr %100, align 8, !tbaa !46
  %101 = load ptr, ptr %18, align 8, !tbaa !3
  %102 = load ptr, ptr %14, align 8, !tbaa !12
  %103 = getelementptr inbounds nuw %struct.lv_font_fmt_txt_kern_pair_t, ptr %102, i32 0, i32 1
  store ptr %101, ptr %103, align 8, !tbaa !48
  %104 = load ptr, ptr %6, align 8, !tbaa !12
  %105 = load ptr, ptr %17, align 8, !tbaa !3
  %106 = load i32, ptr %16, align 4, !tbaa !8
  %107 = call i32 @lv_fs_read(ptr noundef %104, ptr noundef %105, i32 noundef %106, ptr noundef null)
  %108 = icmp ne i32 %107, 0
  br i1 %108, label %109, label %110

109:                                              ; preds = %75
  store i32 -1, ptr %5, align 4
  store i32 1, ptr %11, align 4
  br label %118

110:                                              ; preds = %75
  %111 = load ptr, ptr %6, align 8, !tbaa !12
  %112 = load ptr, ptr %18, align 8, !tbaa !3
  %113 = load i32, ptr %15, align 4, !tbaa !8
  %114 = call i32 @lv_fs_read(ptr noundef %111, ptr noundef %112, i32 noundef %113, ptr noundef null)
  %115 = icmp ne i32 %114, 0
  br i1 %115, label %116, label %117

116:                                              ; preds = %110
  store i32 -1, ptr %5, align 4
  store i32 1, ptr %11, align 4
  br label %118

117:                                              ; preds = %110
  store i32 0, ptr %11, align 4
  br label %118

118:                                              ; preds = %117, %116, %109
  call void @llvm.lifetime.end.p0(i64 8, ptr %18) #3
  call void @llvm.lifetime.end.p0(i64 8, ptr %17) #3
  call void @llvm.lifetime.end.p0(i64 4, ptr %16) #3
  br label %119

119:                                              ; preds = %118, %60
  call void @llvm.lifetime.end.p0(i64 4, ptr %15) #3
  call void @llvm.lifetime.end.p0(i64 8, ptr %14) #3
  %120 = load i32, ptr %11, align 4
  switch i32 %120, label %213 [
    i32 0, label %121
  ]

121:                                              ; preds = %119
  br label %211

122:                                              ; preds = %42
  %123 = load i8, ptr %12, align 1, !tbaa !61
  %124 = zext i8 %123 to i32
  %125 = icmp eq i32 3, %124
  br i1 %125, label %126, label %206

126:                                              ; preds = %122
  call void @llvm.lifetime.start.p0(i64 8, ptr %19) #3
  %127 = call ptr @lv_malloc(i64 noundef 32)
  store ptr %127, ptr %19, align 8, !tbaa !12
  %128 = load ptr, ptr %19, align 8, !tbaa !12
  call void @lv_memset(ptr noundef %128, i8 noundef zeroext 0, i64 noundef 32)
  %129 = load ptr, ptr %19, align 8, !tbaa !12
  %130 = load ptr, ptr %7, align 8, !tbaa !12
  %131 = getelementptr inbounds nuw %struct.lv_font_fmt_txt_dsc_t, ptr %130, i32 0, i32 3
  store ptr %129, ptr %131, align 8, !tbaa !44
  %132 = load ptr, ptr %7, align 8, !tbaa !12
  %133 = getelementptr inbounds nuw %struct.lv_font_fmt_txt_dsc_t, ptr %132, i32 0, i32 5
  %134 = load i16, ptr %133, align 2
  %135 = and i16 %134, -8193
  %136 = or i16 %135, 8192
  store i16 %136, ptr %133, align 2
  call void @llvm.lifetime.start.p0(i64 2, ptr %20) #3
  call void @llvm.lifetime.start.p0(i64 1, ptr %21) #3
  call void @llvm.lifetime.start.p0(i64 1, ptr %22) #3
  %137 = load ptr, ptr %6, align 8, !tbaa !12
  %138 = call i32 @lv_fs_read(ptr noundef %137, ptr noundef %20, i32 noundef 2, ptr noundef null)
  %139 = icmp ne i32 %138, 0
  br i1 %139, label %148, label %140

140:                                              ; preds = %126
  %141 = load ptr, ptr %6, align 8, !tbaa !12
  %142 = call i32 @lv_fs_read(ptr noundef %141, ptr noundef %21, i32 noundef 1, ptr noundef null)
  %143 = icmp ne i32 %142, 0
  br i1 %143, label %148, label %144

144:                                              ; preds = %140
  %145 = load ptr, ptr %6, align 8, !tbaa !12
  %146 = call i32 @lv_fs_read(ptr noundef %145, ptr noundef %22, i32 noundef 1, ptr noundef null)
  %147 = icmp ne i32 %146, 0
  br i1 %147, label %148, label %149

148:                                              ; preds = %144, %140, %126
  store i32 -1, ptr %5, align 4
  store i32 1, ptr %11, align 4
  br label %203

149:                                              ; preds = %144
  call void @llvm.lifetime.start.p0(i64 4, ptr %23) #3
  %150 = load i8, ptr %21, align 1, !tbaa !61
  %151 = zext i8 %150 to i64
  %152 = mul i64 1, %151
  %153 = load i8, ptr %22, align 1, !tbaa !61
  %154 = zext i8 %153 to i64
  %155 = mul i64 %152, %154
  %156 = trunc i64 %155 to i32
  store i32 %156, ptr %23, align 4, !tbaa !8
  call void @llvm.lifetime.start.p0(i64 8, ptr %24) #3
  %157 = load i16, ptr %20, align 2, !tbaa !38
  %158 = zext i16 %157 to i64
  %159 = call ptr @lv_malloc(i64 noundef %158)
  store ptr %159, ptr %24, align 8, !tbaa !3
  call void @llvm.lifetime.start.p0(i64 8, ptr %25) #3
  %160 = load i16, ptr %20, align 2, !tbaa !38
  %161 = zext i16 %160 to i64
  %162 = call ptr @lv_malloc(i64 noundef %161)
  store ptr %162, ptr %25, align 8, !tbaa !3
  call void @llvm.lifetime.start.p0(i64 8, ptr %26) #3
  %163 = load i32, ptr %23, align 4, !tbaa !8
  %164 = sext i32 %163 to i64
  %165 = call ptr @lv_malloc(i64 noundef %164)
  store ptr %165, ptr %26, align 8, !tbaa !3
  %166 = load ptr, ptr %24, align 8, !tbaa !3
  %167 = load ptr, ptr %19, align 8, !tbaa !12
  %168 = getelementptr inbounds nuw %struct.lv_font_fmt_txt_kern_classes_t, ptr %167, i32 0, i32 1
  store ptr %166, ptr %168, align 8, !tbaa !51
  %169 = load ptr, ptr %25, align 8, !tbaa !3
  %170 = load ptr, ptr %19, align 8, !tbaa !12
  %171 = getelementptr inbounds nuw %struct.lv_font_fmt_txt_kern_classes_t, ptr %170, i32 0, i32 2
  store ptr %169, ptr %171, align 8, !tbaa !52
  %172 = load i8, ptr %21, align 1, !tbaa !61
  %173 = load ptr, ptr %19, align 8, !tbaa !12
  %174 = getelementptr inbounds nuw %struct.lv_font_fmt_txt_kern_classes_t, ptr %173, i32 0, i32 3
  store i8 %172, ptr %174, align 8, !tbaa !62
  %175 = load i8, ptr %22, align 1, !tbaa !61
  %176 = load ptr, ptr %19, align 8, !tbaa !12
  %177 = getelementptr inbounds nuw %struct.lv_font_fmt_txt_kern_classes_t, ptr %176, i32 0, i32 4
  store i8 %175, ptr %177, align 1, !tbaa !63
  %178 = load ptr, ptr %26, align 8, !tbaa !3
  %179 = load ptr, ptr %19, align 8, !tbaa !12
  %180 = getelementptr inbounds nuw %struct.lv_font_fmt_txt_kern_classes_t, ptr %179, i32 0, i32 0
  store ptr %178, ptr %180, align 8, !tbaa !49
  %181 = load ptr, ptr %6, align 8, !tbaa !12
  %182 = load ptr, ptr %24, align 8, !tbaa !3
  %183 = load i16, ptr %20, align 2, !tbaa !38
  %184 = zext i16 %183 to i32
  %185 = call i32 @lv_fs_read(ptr noundef %181, ptr noundef %182, i32 noundef %184, ptr noundef null)
  %186 = icmp ne i32 %185, 0
  br i1 %186, label %200, label %187

187:                                              ; preds = %149
  %188 = load ptr, ptr %6, align 8, !tbaa !12
  %189 = load ptr, ptr %25, align 8, !tbaa !3
  %190 = load i16, ptr %20, align 2, !tbaa !38
  %191 = zext i16 %190 to i32
  %192 = call i32 @lv_fs_read(ptr noundef %188, ptr noundef %189, i32 noundef %191, ptr noundef null)
  %193 = icmp ne i32 %192, 0
  br i1 %193, label %200, label %194

194:                                              ; preds = %187
  %195 = load ptr, ptr %6, align 8, !tbaa !12
  %196 = load ptr, ptr %26, align 8, !tbaa !3
  %197 = load i32, ptr %23, align 4, !tbaa !8
  %198 = call i32 @lv_fs_read(ptr noundef %195, ptr noundef %196, i32 noundef %197, ptr noundef null)
  %199 = icmp ne i32 %198, 0
  br i1 %199, label %200, label %201

200:                                              ; preds = %194, %187, %149
  store i32 -1, ptr %5, align 4
  store i32 1, ptr %11, align 4
  br label %202

201:                                              ; preds = %194
  store i32 0, ptr %11, align 4
  br label %202

202:                                              ; preds = %201, %200
  call void @llvm.lifetime.end.p0(i64 8, ptr %26) #3
  call void @llvm.lifetime.end.p0(i64 8, ptr %25) #3
  call void @llvm.lifetime.end.p0(i64 8, ptr %24) #3
  call void @llvm.lifetime.end.p0(i64 4, ptr %23) #3
  br label %203

203:                                              ; preds = %202, %148
  call void @llvm.lifetime.end.p0(i64 1, ptr %22) #3
  call void @llvm.lifetime.end.p0(i64 1, ptr %21) #3
  call void @llvm.lifetime.end.p0(i64 2, ptr %20) #3
  call void @llvm.lifetime.end.p0(i64 8, ptr %19) #3
  %204 = load i32, ptr %11, align 4
  switch i32 %204, label %213 [
    i32 0, label %205
  ]

205:                                              ; preds = %203
  br label %210

206:                                              ; preds = %122
  br label %207

207:                                              ; preds = %206
  br label %208

208:                                              ; preds = %207
  br label %209

209:                                              ; preds = %208
  store i32 -1, ptr %5, align 4
  store i32 1, ptr %11, align 4
  br label %213

210:                                              ; preds = %205
  br label %211

211:                                              ; preds = %210, %121
  %212 = load i32, ptr %10, align 4, !tbaa !8
  store i32 %212, ptr %5, align 4
  store i32 1, ptr %11, align 4
  br label %213

213:                                              ; preds = %211, %209, %203, %119, %41
  call void @llvm.lifetime.end.p0(i64 4, ptr %13) #3
  call void @llvm.lifetime.end.p0(i64 1, ptr %12) #3
  br label %214

214:                                              ; preds = %213, %32
  call void @llvm.lifetime.end.p0(i64 4, ptr %10) #3
  %215 = load i32, ptr %5, align 4
  ret i32 %215
}