; Function Attrs: nounwind uwtable
define range(i32 -1, -2147483648) i32 @load_kern(ptr noundef %0, ptr noundef captures(none) %1, i8 noundef zeroext %2, i32 noundef %3) local_unnamed_addr #0 {
  %5 = alloca i32, align 4
  %6 = alloca [4 x i8], align 1
  %7 = alloca i8, align 1
  %8 = alloca i32, align 4
  %9 = alloca i32, align 4
  %10 = alloca i16, align 2
  %11 = alloca i8, align 1
  %12 = alloca i8, align 1
  %13 = tail call i32 @lv_fs_seek(ptr noundef %0, i32 noundef %3, i32 noundef 0) #3
  call void @llvm.lifetime.start.p0(i64 4, ptr nonnull %5) #3
  call void @llvm.lifetime.start.p0(i64 4, ptr nonnull %6) #3
  %14 = call i32 @lv_fs_read(ptr noundef %0, ptr noundef nonnull %5, i32 noundef 4, ptr noundef null) #3
  %.not.i = icmp eq i32 %14, 0
  br i1 %.not.i, label %15, label %read_label.exit.thread

15:                                               ; preds = %4
  %16 = call i32 @lv_fs_read(ptr noundef %0, ptr noundef nonnull %6, i32 noundef 4, ptr noundef null) #3
  %.not5.i = icmp eq i32 %16, 0
  br i1 %.not5.i, label %17, label %read_label.exit.thread

17:                                               ; preds = %15
  %18 = call i32 @lv_memcmp(ptr noundef nonnull @.str, ptr noundef nonnull %6, i64 noundef 4) #3
  %.not6.i = icmp eq i32 %18, 0
  %19 = load i32, ptr %5, align 4
  br i1 %.not6.i, label %read_label.exit, label %read_label.exit.thread

read_label.exit.thread:                           ; preds = %4, %15, %17
  call void @llvm.lifetime.end.p0(i64 4, ptr nonnull %6) #3
  call void @llvm.lifetime.end.p0(i64 4, ptr nonnull %5) #3
  br label %97

read_label.exit:                                  ; preds = %17
  call void @llvm.lifetime.end.p0(i64 4, ptr nonnull %6) #3
  call void @llvm.lifetime.end.p0(i64 4, ptr nonnull %5) #3
  %20 = icmp slt i32 %19, 0
  br i1 %20, label %97, label %21

21:                                               ; preds = %read_label.exit
  call void @llvm.lifetime.start.p0(i64 1, ptr nonnull %7) #3
  call void @llvm.lifetime.start.p0(i64 4, ptr nonnull %8) #3
  %22 = call i32 @lv_fs_read(ptr noundef %0, ptr noundef nonnull %7, i32 noundef 1, ptr noundef null) #3
  %.not = icmp eq i32 %22, 0
  br i1 %.not, label %23, label %96

23:                                               ; preds = %21
  %24 = call i32 @lv_fs_read(ptr noundef %0, ptr noundef nonnull %8, i32 noundef 3, ptr noundef null) #3
  %.not58 = icmp eq i32 %24, 0
  br i1 %.not58, label %25, label %96

25:                                               ; preds = %23
  %26 = load i8, ptr %7, align 1, !tbaa !62
  switch i8 %26, label %96 [
    i8 0, label %27
    i8 3, label %54
  ]

27:                                               ; preds = %25
  %28 = call ptr @lv_malloc(i64 noundef 24) #3
  call void @lv_memset(ptr noundef %28, i8 noundef zeroext 0, i64 noundef 24) #3
  %29 = getelementptr inbounds nuw i8, ptr %1, i64 24
  store ptr %28, ptr %29, align 8, !tbaa !53
  %30 = getelementptr inbounds nuw i8, ptr %1, i64 34
  %31 = load i16, ptr %30, align 2
  %32 = and i16 %31, -8193
  store i16 %32, ptr %30, align 2
  call void @llvm.lifetime.start.p0(i64 4, ptr nonnull %9) #3
  %33 = call i32 @lv_fs_read(ptr noundef %0, ptr noundef nonnull %9, i32 noundef 4, ptr noundef null) #3
  %.not65 = icmp eq i32 %33, 0
  br i1 %.not65, label %34, label %.critedge

34:                                               ; preds = %27
  %35 = icmp eq i8 %2, 0
  %36 = load i32, ptr %9, align 4
  %.055.v = select i1 %35, i32 1, i32 2
  %.055 = shl i32 %36, %.055.v
  %37 = sext i32 %.055 to i64
  %38 = call ptr @lv_malloc(i64 noundef %37) #3
  %39 = load i32, ptr %9, align 4, !tbaa !29
  %40 = zext i32 %39 to i64
  %41 = call ptr @lv_malloc(i64 noundef %40) #3
  %42 = getelementptr inbounds nuw i8, ptr %28, i64 16
  %43 = and i8 %2, 3
  %44 = zext nneg i8 %43 to i32
  %45 = shl nuw i32 %44, 30
  %46 = load i32, ptr %9, align 4, !tbaa !29
  %47 = and i32 %46, 1073741823
  %48 = or disjoint i32 %47, %45
  store i32 %48, ptr %42, align 8
  store ptr %38, ptr %28, align 8, !tbaa !63
  %49 = getelementptr inbounds nuw i8, ptr %28, i64 8
  store ptr %41, ptr %49, align 8, !tbaa !65
  %50 = call i32 @lv_fs_read(ptr noundef %0, ptr noundef %38, i32 noundef %.055, ptr noundef null) #3
  %.not66 = icmp eq i32 %50, 0
  br i1 %.not66, label %51, label %.critedge

51:                                               ; preds = %34
  %52 = load i32, ptr %9, align 4, !tbaa !29
  %53 = call i32 @lv_fs_read(ptr noundef %0, ptr noundef %41, i32 noundef %52, ptr noundef null) #3
  %.not67 = icmp eq i32 %53, 0
  call void @llvm.lifetime.end.p0(i64 4, ptr nonnull %9) #3
  br i1 %.not67, label %95, label %96

54:                                               ; preds = %25
  %55 = call ptr @lv_malloc(i64 noundef 32) #3
  call void @lv_memset(ptr noundef %55, i8 noundef zeroext 0, i64 noundef 32) #3
  %56 = getelementptr inbounds nuw i8, ptr %1, i64 24
  store ptr %55, ptr %56, align 8, !tbaa !53
  %57 = getelementptr inbounds nuw i8, ptr %1, i64 34
  %58 = load i16, ptr %57, align 2
  %59 = or i16 %58, 8192
  store i16 %59, ptr %57, align 2
  call void @llvm.lifetime.start.p0(i64 2, ptr nonnull %10) #3
  call void @llvm.lifetime.start.p0(i64 1, ptr nonnull %11) #3
  call void @llvm.lifetime.start.p0(i64 1, ptr nonnull %12) #3
  %60 = call i32 @lv_fs_read(ptr noundef %0, ptr noundef nonnull %10, i32 noundef 2, ptr noundef null) #3
  %.not59 = icmp eq i32 %60, 0
  br i1 %.not59, label %61, label %.critedge69

61:                                               ; preds = %54
  %62 = call i32 @lv_fs_read(ptr noundef %0, ptr noundef nonnull %11, i32 noundef 1, ptr noundef null) #3
  %.not60 = icmp eq i32 %62, 0
  br i1 %.not60, label %63, label %.critedge69

63:                                               ; preds = %61
  %64 = call i32 @lv_fs_read(ptr noundef %0, ptr noundef nonnull %12, i32 noundef 1, ptr noundef null) #3
  %.not61 = icmp eq i32 %64, 0
  br i1 %.not61, label %65, label %.critedge69

65:                                               ; preds = %63
  %66 = load i8, ptr %11, align 1, !tbaa !62
  %67 = zext i8 %66 to i32
  %68 = load i8, ptr %12, align 1, !tbaa !62
  %69 = zext i8 %68 to i32
  %70 = mul nuw nsw i32 %69, %67
  %71 = load i16, ptr %10, align 2, !tbaa !50
  %72 = zext i16 %71 to i64
  %73 = call ptr @lv_malloc(i64 noundef %72) #3
  %74 = load i16, ptr %10, align 2, !tbaa !50
  %75 = zext i16 %74 to i64
  %76 = call ptr @lv_malloc(i64 noundef %75) #3
  %77 = zext nneg i32 %70 to i64
  %78 = call ptr @lv_malloc(i64 noundef %77) #3
  %79 = getelementptr inbounds nuw i8, ptr %55, i64 8
  store ptr %73, ptr %79, align 8, !tbaa !66
  %80 = getelementptr inbounds nuw i8, ptr %55, i64 16
  store ptr %76, ptr %80, align 8, !tbaa !67
  %81 = load i8, ptr %11, align 1, !tbaa !62
  %82 = getelementptr inbounds nuw i8, ptr %55, i64 24
  store i8 %81, ptr %82, align 8, !tbaa !68
  %83 = load i8, ptr %12, align 1, !tbaa !62
  %84 = getelementptr inbounds nuw i8, ptr %55, i64 25
  store i8 %83, ptr %84, align 1, !tbaa !69
  store ptr %78, ptr %55, align 8, !tbaa !55
  %85 = load i16, ptr %10, align 2, !tbaa !50
  %86 = zext i16 %85 to i32
  %87 = call i32 @lv_fs_read(ptr noundef %0, ptr noundef %73, i32 noundef %86, ptr noundef null) #3
  %.not62 = icmp eq i32 %87, 0
  br i1 %.not62, label %88, label %.critedge69

88:                                               ; preds = %65
  %89 = load i16, ptr %10, align 2, !tbaa !50
  %90 = zext i16 %89 to i32
  %91 = call i32 @lv_fs_read(ptr noundef %0, ptr noundef %76, i32 noundef %90, ptr noundef null) #3
  %.not63 = icmp eq i32 %91, 0
  br i1 %.not63, label %92, label %.critedge69

92:                                               ; preds = %88
  %93 = call i32 @lv_fs_read(ptr noundef %0, ptr noundef %78, i32 noundef %70, ptr noundef null) #3
  %.not64 = icmp eq i32 %93, 0
  br i1 %.not64, label %94, label %.critedge69

94:                                               ; preds = %92
  call void @llvm.lifetime.end.p0(i64 1, ptr nonnull %12) #3
  call void @llvm.lifetime.end.p0(i64 1, ptr nonnull %11) #3
  call void @llvm.lifetime.end.p0(i64 2, ptr nonnull %10) #3
  br label %95

95:                                               ; preds = %94, %51
  br label %96

.critedge:                                        ; preds = %34, %27
  call void @llvm.lifetime.end.p0(i64 4, ptr nonnull %9) #3
  br label %96

.critedge69:                                      ; preds = %65, %88, %92, %54, %61, %63
  call void @llvm.lifetime.end.p0(i64 1, ptr nonnull %12) #3
  call void @llvm.lifetime.end.p0(i64 1, ptr nonnull %11) #3
  call void @llvm.lifetime.end.p0(i64 2, ptr nonnull %10) #3
  br label %96

96:                                               ; preds = %25, %.critedge69, %.critedge, %21, %23, %51, %95
  %.1 = phi i32 [ %19, %95 ], [ -1, %51 ], [ -1, %23 ], [ -1, %21 ], [ -1, %.critedge ], [ -1, %.critedge69 ], [ -1, %25 ]
  call void @llvm.lifetime.end.p0(i64 4, ptr nonnull %8) #3
  call void @llvm.lifetime.end.p0(i64 1, ptr nonnull %7) #3
  br label %97

97:                                               ; preds = %read_label.exit.thread, %read_label.exit, %96
  %.0 = phi i32 [ %.1, %96 ], [ -1, %read_label.exit ], [ -1, %read_label.exit.thread ]
  ret i32 %.0
}